target datalayout = "e-m:e-p270:32:32-p271:32:32-p272:64:64-i64:64-i128:128-f80:128-n8:16:32:64-S128"
target triple = "x86_64-pc-linux-gnu"

@.str.18 = private unnamed_addr constant [8 x i8] c"default\00", align 1
@libctx = internal global ptr null, align 8
@nullprov = internal global ptr null, align 8
@libprov = internal global ptr null, align 8
@.str.19 = private unnamed_addr constant [27 x i8] c"test_evp_cipher_api_safety\00", align 1
@.str.20 = private unnamed_addr constant [5 x i8] c"fips\00", align 1
@.str.21 = private unnamed_addr constant [22 x i8] c"test_dsa_param_keygen\00", align 1
@.str.22 = private unnamed_addr constant [31 x i8] c"test_dh_safeprime_param_keygen\00", align 1
@.str.23 = private unnamed_addr constant [14 x i8] c"dhx_cert_load\00", align 1
@.str.24 = private unnamed_addr constant [34 x i8] c"../openssl/test/evp_libctx_test.c\00", align 1
@.str.25 = private unnamed_addr constant [47 x i8] c"cipher_names = sk_OPENSSL_STRING_new(name_cmp)\00", align 1
@cipher_names = internal global ptr null, align 8
@.str.26 = private unnamed_addr constant [19 x i8] c"test_cipher_reinit\00", align 1
@.str.27 = private unnamed_addr constant [33 x i8] c"test_cipher_reinit_partialupdate\00", align 1
@.str.28 = private unnamed_addr constant [20 x i8] c"kem_rsa_gen_recover\00", align 1
@.str.29 = private unnamed_addr constant [15 x i8] c"kem_rsa_params\00", align 1
@.str.30 = private unnamed_addr constant [20 x i8] c"kem_invalid_keytype\00", align 1
@.str.31 = private unnamed_addr constant [25 x i8] c"test_cipher_tdes_randkey\00", align 1

; Function Attrs: inlinehint nounwind uwtable
define internal ptr @ossl_check_const_OPENSSL_STRING_sk_type(ptr noundef %0) #4 {
  %2 = alloca ptr, align 8
  store ptr %0, ptr %2, align 8, !tbaa !15
  %3 = load ptr, ptr %2, align 8, !tbaa !15
  ret ptr %3
}

; Function Attrs: inlinehint nounwind uwtable
define internal ptr @ossl_check_OPENSSL_STRING_compfunc_type(ptr noundef %0) #4 {
  %2 = alloca ptr, align 8
  store ptr %0, ptr %2, align 8, !tbaa !31
  %3 = load ptr, ptr %2, align 8, !tbaa !31
  ret ptr %3
}

; Function Attrs: nounwind uwtable
define dso_local i32 @setup_tests() #0 {
  %1 = alloca i32, align 4
  %2 = alloca ptr, align 8
  %3 = alloca ptr, align 8
  %4 = alloca i32, align 4
  %5 = alloca i32, align 4
  call void @llvm.lifetime.start.p0(i64 8, ptr %2) #7
  store ptr @.str.18, ptr %2, align 8, !tbaa !4
  call void @llvm.lifetime.start.p0(i64 8, ptr %3) #7
  store ptr null, ptr %3, align 8, !tbaa !4
  call void @llvm.lifetime.start.p0(i64 4, ptr %4) #7
  br label %6

6:                                                ; preds = %18, %0
  %7 = call i32 @opt_next()
  store i32 %7, ptr %4, align 4, !tbaa !9
  %8 = icmp ne i32 %7, 0
  br i1 %8, label %9, label %19

9:                                                ; preds = %6
  %10 = load i32, ptr %4, align 4, !tbaa !9
  switch i32 %10, label %16 [
    i32 2, label %11
    i32 1, label %13
    i32 500, label %15
    i32 501, label %15
    i32 502, label %15
    i32 503, label %15
    i32 504, label %15
    i32 505, label %15
    i32 -1, label %17
  ]

11:                                               ; preds = %9
  %12 = call ptr @opt_arg()
  store ptr %12, ptr %2, align 8, !tbaa !4
  br label %18

13:                                               ; preds = %9
  %14 = call ptr @opt_arg()
  store ptr %14, ptr %3, align 8, !tbaa !4
  br label %18

15:                                               ; preds = %9, %9, %9, %9, %9, %9
  br label %18

16:                                               ; preds = %9
  br label %17

17:                                               ; preds = %9, %16
  store i32 0, ptr %1, align 4
  store i32 1, ptr %5, align 4
  br label %49

18:                                               ; preds = %15, %13, %11
  br label %6, !llvm.loop !11

19:                                               ; preds = %6
  %20 = load ptr, ptr %3, align 8, !tbaa !4
  %21 = load ptr, ptr %2, align 8, !tbaa !4
  %22 = call i32 @test_get_libctx(ptr noundef @libctx, ptr noundef @nullprov, ptr noundef %20, ptr noundef @libprov, ptr noundef %21)
  %23 = icmp ne i32 %22, 0
  br i1 %23, label %25, label %24

24:                                               ; preds = %19
  store i32 0, ptr %1, align 4
  store i32 1, ptr %5, align 4
  br label %49

25:                                               ; preds = %19
  call void @add_test(ptr noundef @.str.19, ptr noundef @test_evp_cipher_api_safety)
  %26 = load ptr, ptr %2, align 8, !tbaa !4
  %27 = call i32 @strcmp(ptr noundef %26, ptr noundef @.str.20) #8
  %28 = icmp ne i32 %27, 0
  br i1 %28, label %33, label %29

29:                                               ; preds = %25
  %30 = load ptr, ptr @libctx, align 8, !tbaa !13
  %31 = call i32 @fips_provider_version_lt(ptr noundef %30, i32 noundef 3, i32 noundef 4, i32 noundef 0)
  %32 = icmp ne i32 %31, 0
  br i1 %32, label %33, label %34

33:                                               ; preds = %29, %25
  call void @add_all_tests(ptr noundef @.str.21, ptr noundef @test_dsa_param_keygen, i32 noundef 27, i32 noundef 1)
  br label %34

34:                                               ; preds = %33, %29
  call void @add_all_tests(ptr noundef @.str.22, ptr noundef @test_dh_safeprime_param_keygen, i32 noundef 27, i32 noundef 1)
  call void @add_test(ptr noundef @.str.23, ptr noundef @dhx_cert_load)
  %35 = call ptr @ossl_check_OPENSSL_STRING_compfunc_type(ptr noundef @name_cmp)
  %36 = call ptr @OPENSSL_sk_new(ptr noundef %35)
  store ptr %36, ptr @cipher_names, align 8, !tbaa !15
  %37 = call i32 @test_ptr(ptr noundef @.str.24, i32 noundef 811, ptr noundef @.str.25, ptr noundef %36)
  %38 = icmp ne i32 %37, 0
  br i1 %38, label %40, label %39

39:                                               ; preds = %34
  store i32 0, ptr %1, align 4
  store i32 1, ptr %5, align 4
  br label %49

40:                                               ; preds = %34
  %41 = load ptr, ptr @libctx, align 8, !tbaa !13
  %42 = load ptr, ptr @cipher_names, align 8, !tbaa !15
  call void @EVP_CIPHER_do_all_provided(ptr noundef %41, ptr noundef @collect_cipher_names, ptr noundef %42)
  %43 = load ptr, ptr @cipher_names, align 8, !tbaa !15
  %44 = call ptr @ossl_check_const_OPENSSL_STRING_sk_type(ptr noundef %43)
  %45 = call i32 @OPENSSL_sk_num(ptr noundef %44)
  call void @add_all_tests(ptr noundef @.str.26, ptr noundef @test_cipher_reinit, i32 noundef %45, i32 noundef 1)
  %46 = load ptr, ptr @cipher_names, align 8, !tbaa !15
  %47 = call ptr @ossl_check_const_OPENSSL_STRING_sk_type(ptr noundef %46)
  %48 = call i32 @OPENSSL_sk_num(ptr noundef %47)
  call void @add_all_tests(ptr noundef @.str.27, ptr noundef @test_cipher_reinit_partialupdate, i32 noundef %48, i32 noundef 1)
  call void @add_test(ptr noundef @.str.28, ptr noundef @kem_rsa_gen_recover)
  call void @add_test(ptr noundef @.str.29, ptr noundef @kem_rsa_params)
  call void @add_test(ptr noundef @.str.30, ptr noundef @kem_invalid_keytype)
  call void @add_test(ptr noundef @.str.31, ptr noundef @test_cipher_tdes_randkey)
  store i32 1, ptr %1, align 4
  store i32 1, ptr %5, align 4
  br label %49

49:                                               ; preds = %40, %39, %24, %17
  call void @llvm.lifetime.end.p0(i64 4, ptr %4) #7
  call void @llvm.lifetime.end.p0(i64 8, ptr %3) #7
  call void @llvm.lifetime.end.p0(i64 8, ptr %2) #7
  %50 = load i32, ptr %1, align 4
  ret i32 %50
}