; Function Attrs: nounwind uwtable
define dso_local range(i32 0, 2) i32 @setup_tests() local_unnamed_addr #1 {
  br label %1

1:                                                ; preds = %.backedge, %0
  %.05 = phi ptr [ @.str.18, %0 ], [ %.05.be, %.backedge ]
  %.04 = phi ptr [ null, %0 ], [ %.04.be, %.backedge ]
  %2 = tail call i32 @opt_next() #7
  switch i32 %2, label %.loopexit [
    i32 0, label %7
    i32 2, label %3
    i32 1, label %5
    i32 500, label %.backedge
    i32 501, label %.backedge
    i32 502, label %.backedge
    i32 503, label %.backedge
    i32 504, label %.backedge
    i32 505, label %.backedge
  ]

.backedge:                                        ; preds = %1, %1, %1, %1, %1, %1, %5, %3
  %.05.be = phi ptr [ %.05, %5 ], [ %4, %3 ], [ %.05, %1 ], [ %.05, %1 ], [ %.05, %1 ], [ %.05, %1 ], [ %.05, %1 ], [ %.05, %1 ]
  %.04.be = phi ptr [ %6, %5 ], [ %.04, %3 ], [ %.04, %1 ], [ %.04, %1 ], [ %.04, %1 ], [ %.04, %1 ], [ %.04, %1 ], [ %.04, %1 ]
  br label %1, !llvm.loop !4

3:                                                ; preds = %1
  %4 = tail call ptr @opt_arg() #7
  br label %.backedge

5:                                                ; preds = %1
  %6 = tail call ptr @opt_arg() #7
  br label %.backedge

7:                                                ; preds = %1
  %8 = tail call i32 @test_get_libctx(ptr noundef nonnull @libctx, ptr noundef nonnull @nullprov, ptr noundef %.04, ptr noundef nonnull @libprov, ptr noundef %.05) #7
  %.not8 = icmp eq i32 %8, 0
  br i1 %.not8, label %.loopexit, label %9

9:                                                ; preds = %7
  tail call void @add_test(ptr noundef nonnull @.str.19, ptr noundef nonnull @test_evp_cipher_api_safety) #7
  %10 = tail call i32 @strcmp(ptr noundef nonnull dereferenceable(1) %.05, ptr noundef nonnull dereferenceable(5) @.str.20) #8
  %.not9 = icmp eq i32 %10, 0
  br i1 %.not9, label %11, label %14

11:                                               ; preds = %9
  %12 = load ptr, ptr @libctx, align 8, !tbaa !6
  %13 = tail call i32 @fips_provider_version_lt(ptr noundef %12, i32 noundef 3, i32 noundef 4, i32 noundef 0) #7
  %.not10 = icmp eq i32 %13, 0
  br i1 %.not10, label %15, label %14

14:                                               ; preds = %11, %9
  tail call void @add_all_tests(ptr noundef nonnull @.str.21, ptr noundef nonnull @test_dsa_param_keygen, i32 noundef 27, i32 noundef 1) #7
  br label %15

15:                                               ; preds = %14, %11
  tail call void @add_all_tests(ptr noundef nonnull @.str.22, ptr noundef nonnull @test_dh_safeprime_param_keygen, i32 noundef 27, i32 noundef 1) #7
  tail call void @add_test(ptr noundef nonnull @.str.23, ptr noundef nonnull @dhx_cert_load) #7
  %16 = tail call ptr @OPENSSL_sk_new(ptr noundef nonnull @name_cmp) #7
  store ptr %16, ptr @cipher_names, align 8, !tbaa !11
  %17 = tail call i32 @test_ptr(ptr noundef nonnull @.str.24, i32 noundef 811, ptr noundef nonnull @.str.25, ptr noundef %16) #7
  %.not11 = icmp eq i32 %17, 0
  br i1 %.not11, label %.loopexit, label %18

18:                                               ; preds = %15
  %19 = load ptr, ptr @libctx, align 8, !tbaa !6
  %20 = load ptr, ptr @cipher_names, align 8, !tbaa !11
  tail call void @EVP_CIPHER_do_all_provided(ptr noundef %19, ptr noundef nonnull @collect_cipher_names, ptr noundef %20) #7
  %21 = load ptr, ptr @cipher_names, align 8, !tbaa !11
  %22 = tail call i32 @OPENSSL_sk_num(ptr noundef %21) #7
  tail call void @add_all_tests(ptr noundef nonnull @.str.26, ptr noundef nonnull @test_cipher_reinit, i32 noundef %22, i32 noundef 1) #7
  %23 = load ptr, ptr @cipher_names, align 8, !tbaa !11
  %24 = tail call i32 @OPENSSL_sk_num(ptr noundef %23) #7
  tail call void @add_all_tests(ptr noundef nonnull @.str.27, ptr noundef nonnull @test_cipher_reinit_partialupdate, i32 noundef %24, i32 noundef 1) #7
  tail call void @add_test(ptr noundef nonnull @.str.28, ptr noundef nonnull @kem_rsa_gen_recover) #7
  tail call void @add_test(ptr noundef nonnull @.str.29, ptr noundef nonnull @kem_rsa_params) #7
  tail call void @add_test(ptr noundef nonnull @.str.30, ptr noundef nonnull @kem_invalid_keytype) #7
  tail call void @add_test(ptr noundef nonnull @.str.31, ptr noundef nonnull @test_cipher_tdes_randkey) #7
  br label %.loopexit

.loopexit:                                        ; preds = %1, %15, %7, %18
  %.0 = phi i32 [ 1, %18 ], [ 0, %7 ], [ 0, %15 ], [ 0, %1 ]
  ret i32 %.0
}